target datalayout = "e-m:e-p270:32:32-p271:32:32-p272:64:64-i64:64-i128:128-f80:128-n8:16:32:64-S128"
target triple = "x86_64-pc-linux-gnu"

%struct._object = type { %union.anon, ptr }
%union.anon = type { i64 }
%struct.instruction_sequence = type { %struct._object, ptr, i32, i32, i32, ptr, i32, ptr }

; Function Attrs: nounwind uwtable
define internal i32 @inst_seq_traverse(ptr noundef %0, ptr noundef %1, ptr noundef %2) #0 {
  %4 = alloca i32, align 4
  %5 = alloca ptr, align 8
  %6 = alloca ptr, align 8
  %7 = alloca ptr, align 8
  %8 = alloca i32, align 4
  %9 = alloca i32, align 4
  store ptr %0, ptr %5, align 8, !tbaa !4
  store ptr %1, ptr %6, align 8, !tbaa !25
  store ptr %2, ptr %7, align 8, !tbaa !25
  br label %10

10:                                               ; preds = %3
  %11 = load ptr, ptr %5, align 8, !tbaa !4
  %12 = getelementptr inbounds nuw %struct.instruction_sequence, ptr %11, i32 0, i32 7
  %13 = load ptr, ptr %12, align 8, !tbaa !40
  %14 = icmp ne ptr %13, null
  br i1 %14, label %15, label %30

15:                                               ; preds = %10
  call void @llvm.lifetime.start.p0(i64 4, ptr %8) #6
  %16 = load ptr, ptr %6, align 8, !tbaa !25
  %17 = load ptr, ptr %5, align 8, !tbaa !4
  %18 = getelementptr inbounds nuw %struct.instruction_sequence, ptr %17, i32 0, i32 7
  %19 = load ptr, ptr %18, align 8, !tbaa !40
  %20 = load ptr, ptr %7, align 8, !tbaa !25
  %21 = call i32 %16(ptr noundef %19, ptr noundef %20)
  store i32 %21, ptr %8, align 4, !tbaa !18
  %22 = load i32, ptr %8, align 4, !tbaa !18
  %23 = icmp ne i32 %22, 0
  br i1 %23, label %24, label %26

24:                                               ; preds = %15
  %25 = load i32, ptr %8, align 4, !tbaa !18
  store i32 %25, ptr %4, align 4
  store i32 1, ptr %9, align 4
  br label %27

26:                                               ; preds = %15
  store i32 0, ptr %9, align 4
  br label %27

27:                                               ; preds = %26, %24
  call void @llvm.lifetime.end.p0(i64 4, ptr %8) #6
  %28 = load i32, ptr %9, align 4
  switch i32 %28, label %34 [
    i32 0, label %29
    i32 1, label %32
  ]

29:                                               ; preds = %27
  br label %30

30:                                               ; preds = %29, %10
  br label %31

31:                                               ; preds = %30
  store i32 0, ptr %4, align 4
  br label %32

32:                                               ; preds = %31, %27
  %33 = load i32, ptr %4, align 4
  ret i32 %33

34:                                               ; preds = %27
  unreachable
}